target datalayout = "e-m:e-p270:32:32-p271:32:32-p272:64:64-i64:64-i128:128-f80:128-n8:16:32:64-S128"
target triple = "x86_64-pc-linux-gnu"

%"class.cmsys::RegularExpression" = type <{ %"class.cmsys::RegularExpressionMatch", i8, i8, [6 x i8], ptr, i64, ptr, i32, [4 x i8] }>
%"class.cmsys::RegularExpressionMatch" = type { [32 x ptr], [32 x ptr], ptr }

@.str.190 = private unnamed_addr constant [20 x i8] c"(\\${[A-Za-z_0-9]*})\00", align 1
@.str.191 = private unnamed_addr constant [23 x i8] c"(\\$ENV{[A-Za-z_0-9]*})\00", align 1
@.str.192 = private unnamed_addr constant [18 x i8] c"(@[A-Za-z_0-9]*@)\00", align 1

; Function Attrs: mustprogress nounwind uwtable
define linkonce_odr dso_local noundef i64 @_ZNK5cmsys22RegularExpressionMatch3endEv(ptr noundef nonnull align 8 dereferenceable(520) %0) #4 comdat align 2 {
  %2 = alloca ptr, align 8
  store ptr %0, ptr %2, align 8
  %3 = load ptr, ptr %2, align 8
  %4 = getelementptr inbounds %"class.cmsys::RegularExpressionMatch", ptr %3, i32 0, i32 1
  %5 = getelementptr inbounds [32 x ptr], ptr %4, i64 0, i64 0
  %6 = load ptr, ptr %5, align 8
  %7 = getelementptr inbounds %"class.cmsys::RegularExpressionMatch", ptr %3, i32 0, i32 2
  %8 = load ptr, ptr %7, align 8
  %9 = ptrtoint ptr %6 to i64
  %10 = ptrtoint ptr %8 to i64
  %11 = sub i64 %9, %10
  ret i64 %11
}

; Function Attrs: mustprogress nounwind uwtable
define linkonce_odr dso_local noundef i64 @_ZNK5cmsys22RegularExpressionMatch5startEv(ptr noundef nonnull align 8 dereferenceable(520) %0) #4 comdat align 2 {
  %2 = alloca ptr, align 8
  store ptr %0, ptr %2, align 8
  %3 = load ptr, ptr %2, align 8
  %4 = getelementptr inbounds %"class.cmsys::RegularExpressionMatch", ptr %3, i32 0, i32 0
  %5 = getelementptr inbounds [32 x ptr], ptr %4, i64 0, i64 0
  %6 = load ptr, ptr %5, align 8
  %7 = getelementptr inbounds %"class.cmsys::RegularExpressionMatch", ptr %3, i32 0, i32 2
  %8 = load ptr, ptr %7, align 8
  %9 = ptrtoint ptr %6 to i64
  %10 = ptrtoint ptr %8 to i64
  %11 = sub i64 %9, %10
  ret i64 %11
}

; Function Attrs: mustprogress uwtable
define linkonce_odr dso_local noundef zeroext i1 @_ZN5cmsys17RegularExpression4findEPKc(ptr noundef nonnull align 8 dereferenceable(556) %0, ptr noundef %1) #5 comdat align 2 {
  %3 = alloca ptr, align 8
  %4 = alloca ptr, align 8
  store ptr %0, ptr %3, align 8
  store ptr %1, ptr %4, align 8
  %5 = load ptr, ptr %3, align 8
  %6 = load ptr, ptr %4, align 8
  %7 = getelementptr inbounds %"class.cmsys::RegularExpression", ptr %5, i32 0, i32 0
  %8 = call noundef zeroext i1 @_ZNK5cmsys17RegularExpression4findEPKcRNS_22RegularExpressionMatchE(ptr noundef nonnull align 8 dereferenceable(556) %5, ptr noundef %6, ptr noundef nonnull align 8 dereferenceable(520) %7)
  ret i1 %8
}

; Function Attrs: mustprogress nounwind uwtable
define linkonce_odr dso_local void @_ZN5cmsys22RegularExpressionMatchC2Ev(ptr noundef nonnull align 8 dereferenceable(520) %0) unnamed_addr #4 comdat align 2 {
  %2 = alloca ptr, align 8
  store ptr %0, ptr %2, align 8
  %3 = load ptr, ptr %2, align 8
  %4 = getelementptr inbounds %"class.cmsys::RegularExpressionMatch", ptr %3, i32 0, i32 0
  call void @llvm.memset.p0.i64(ptr align 8 %4, i8 0, i64 256, i1 false)
  %5 = getelementptr inbounds %"class.cmsys::RegularExpressionMatch", ptr %3, i32 0, i32 1
  call void @llvm.memset.p0.i64(ptr align 8 %5, i8 0, i64 256, i1 false)
  %6 = getelementptr inbounds %"class.cmsys::RegularExpressionMatch", ptr %3, i32 0, i32 2
  store ptr null, ptr %6, align 8
  ret void
}

; Function Attrs: mustprogress nounwind uwtable
define linkonce_odr dso_local void @_ZN5cmsys17RegularExpressionD2Ev(ptr noundef nonnull align 8 dereferenceable(556) %0) unnamed_addr #4 comdat align 2 {
  %2 = alloca ptr, align 8
  store ptr %0, ptr %2, align 8
  %3 = load ptr, ptr %2, align 8
  %4 = getelementptr inbounds %"class.cmsys::RegularExpression", ptr %3, i32 0, i32 6
  %5 = load ptr, ptr %4, align 8
  %6 = icmp eq ptr %5, null
  br i1 %6, label %8, label %7

7:                                                ; preds = %1
  call void @_ZdaPv(ptr noundef %5) #18
  br label %8

8:                                                ; preds = %7, %1
  ret void
}

; Function Attrs: mustprogress uwtable
define linkonce_odr dso_local noundef i64 @_ZNK5cmsys17RegularExpression3endEv(ptr noundef nonnull align 8 dereferenceable(556) %0) #5 comdat align 2 {
  %2 = alloca ptr, align 8
  store ptr %0, ptr %2, align 8
  %3 = load ptr, ptr %2, align 8
  %4 = getelementptr inbounds %"class.cmsys::RegularExpression", ptr %3, i32 0, i32 0
  %5 = call noundef i64 @_ZNK5cmsys22RegularExpressionMatch3endEv(ptr noundef nonnull align 8 dereferenceable(520) %4)
  ret i64 %5
}

; Function Attrs: mustprogress uwtable
define linkonce_odr dso_local noundef i64 @_ZNK5cmsys17RegularExpression5startEv(ptr noundef nonnull align 8 dereferenceable(556) %0) #5 comdat align 2 {
  %2 = alloca ptr, align 8
  store ptr %0, ptr %2, align 8
  %3 = load ptr, ptr %2, align 8
  %4 = getelementptr inbounds %"class.cmsys::RegularExpression", ptr %3, i32 0, i32 0
  %5 = call noundef i64 @_ZNK5cmsys22RegularExpressionMatch5startEv(ptr noundef nonnull align 8 dereferenceable(520) %4)
  ret i64 %5
}

; Function Attrs: mustprogress uwtable
define linkonce_odr dso_local noundef zeroext i1 @_ZN5cmsys17RegularExpression4findERKNSt7__cxx1112basic_stringIcSt11char_traitsIcESaIcEEE(ptr noundef nonnull align 8 dereferenceable(556) %0, ptr noundef nonnull align 8 dereferenceable(32) %1) #5 comdat align 2 {
  %3 = alloca ptr, align 8
  %4 = alloca ptr, align 8
  store ptr %0, ptr %3, align 8
  store ptr %1, ptr %4, align 8
  %5 = load ptr, ptr %3, align 8
  %6 = load ptr, ptr %4, align 8
  %7 = call noundef ptr @_ZNKSt7__cxx1112basic_stringIcSt11char_traitsIcESaIcEE5c_strEv(ptr noundef nonnull align 8 dereferenceable(32) %6) #3
  %8 = call noundef zeroext i1 @_ZN5cmsys17RegularExpression4findEPKc(ptr noundef nonnull align 8 dereferenceable(556) %5, ptr noundef %7)
  ret i1 %8
}

; Function Attrs: mustprogress uwtable
define linkonce_odr dso_local void @_ZN5cmsys17RegularExpressionC2EPKc(ptr noundef nonnull align 8 dereferenceable(556) %0, ptr noundef %1) unnamed_addr #5 comdat align 2 {
  %3 = alloca ptr, align 8
  %4 = alloca ptr, align 8
  store ptr %0, ptr %3, align 8
  store ptr %1, ptr %4, align 8
  %5 = load ptr, ptr %3, align 8
  %6 = getelementptr inbounds %"class.cmsys::RegularExpression", ptr %5, i32 0, i32 0
  call void @_ZN5cmsys22RegularExpressionMatchC2Ev(ptr noundef nonnull align 8 dereferenceable(520) %6)
  %7 = getelementptr inbounds %"class.cmsys::RegularExpression", ptr %5, i32 0, i32 1
  store i8 0, ptr %7, align 8
  %8 = getelementptr inbounds %"class.cmsys::RegularExpression", ptr %5, i32 0, i32 2
  store i8 0, ptr %8, align 1
  %9 = getelementptr inbounds %"class.cmsys::RegularExpression", ptr %5, i32 0, i32 4
  store ptr null, ptr %9, align 8
  %10 = getelementptr inbounds %"class.cmsys::RegularExpression", ptr %5, i32 0, i32 6
  store ptr null, ptr %10, align 8
  %11 = getelementptr inbounds %"class.cmsys::RegularExpression", ptr %5, i32 0, i32 7
  store i32 0, ptr %11, align 8
  %12 = load ptr, ptr %4, align 8
  %13 = icmp ne ptr %12, null
  br i1 %13, label %14, label %17

14:                                               ; preds = %2
  %15 = load ptr, ptr %4, align 8
  %16 = call noundef zeroext i1 @_ZN5cmsys17RegularExpression7compileEPKc(ptr noundef nonnull align 8 dereferenceable(556) %5, ptr noundef %15)
  br label %17

17:                                               ; preds = %14, %2
  ret void
}

; Function Attrs: mustprogress uwtable
define dso_local void @_ZNK10cmMakefile23RemoveVariablesInStringERNSt7__cxx1112basic_stringIcSt11char_traitsIcESaIcEEEb(ptr noundef nonnull align 8 dereferenceable(3520) %0, ptr noundef nonnull align 8 dereferenceable(32) %1, i1 noundef zeroext %2) #5 align 2 personality ptr @__gxx_personality_v0 {
  %4 = alloca ptr, align 8
  %5 = alloca ptr, align 8
  %6 = alloca i8, align 1
  %7 = alloca %"class.cmsys::RegularExpression", align 8
  %8 = alloca ptr, align 8
  %9 = alloca i32, align 4
  %10 = alloca %"class.cmsys::RegularExpression", align 8
  %11 = alloca %"class.cmsys::RegularExpression", align 8
  store ptr %0, ptr %4, align 8
  store ptr %1, ptr %5, align 8
  %12 = zext i1 %2 to i8
  store i8 %12, ptr %6, align 1
  %13 = load i8, ptr %6, align 1
  %14 = trunc i8 %13 to i1
  br i1 %14, label %36, label %15

15:                                               ; preds = %3
  call void @_ZN5cmsys17RegularExpressionC2EPKc(ptr noundef nonnull align 8 dereferenceable(556) %7, ptr noundef @.str.190)
  br label %16

16:                                               ; preds = %30, %15
  %17 = load ptr, ptr %5, align 8
  %18 = invoke noundef zeroext i1 @_ZN5cmsys17RegularExpression4findERKNSt7__cxx1112basic_stringIcSt11char_traitsIcESaIcEEE(ptr noundef nonnull align 8 dereferenceable(556) %7, ptr noundef nonnull align 8 dereferenceable(32) %17)
          to label %19 unwind label %31

19:                                               ; preds = %16
  br i1 %18, label %20, label %35

20:                                               ; preds = %19
  %21 = load ptr, ptr %5, align 8
  %22 = invoke noundef i64 @_ZNK5cmsys17RegularExpression5startEv(ptr noundef nonnull align 8 dereferenceable(556) %7)
          to label %23 unwind label %31

23:                                               ; preds = %20
  %24 = invoke noundef i64 @_ZNK5cmsys17RegularExpression3endEv(ptr noundef nonnull align 8 dereferenceable(556) %7)
          to label %25 unwind label %31

25:                                               ; preds = %23
  %26 = invoke noundef i64 @_ZNK5cmsys17RegularExpression5startEv(ptr noundef nonnull align 8 dereferenceable(556) %7)
          to label %27 unwind label %31

27:                                               ; preds = %25
  %28 = sub i64 %24, %26
  %29 = invoke noundef nonnull align 8 dereferenceable(32) ptr @_ZNSt7__cxx1112basic_stringIcSt11char_traitsIcESaIcEE5eraseEmm(ptr noundef nonnull align 8 dereferenceable(32) %21, i64 noundef %22, i64 noundef %28)
          to label %30 unwind label %31

30:                                               ; preds = %27
  br label %16, !llvm.loop !22

31:                                               ; preds = %27, %25, %23, %20, %16
  %32 = landingpad { ptr, i32 }
          cleanup
  %33 = extractvalue { ptr, i32 } %32, 0
  store ptr %33, ptr %8, align 8
  %34 = extractvalue { ptr, i32 } %32, 1
  store i32 %34, ptr %9, align 4
  call void @_ZN5cmsys17RegularExpressionD2Ev(ptr noundef nonnull align 8 dereferenceable(556) %7) #3
  br label %81

35:                                               ; preds = %19
  call void @_ZN5cmsys17RegularExpressionD2Ev(ptr noundef nonnull align 8 dereferenceable(556) %7) #3
  br label %36

36:                                               ; preds = %35, %3
  %37 = load i8, ptr %6, align 1
  %38 = trunc i8 %37 to i1
  br i1 %38, label %60, label %39

39:                                               ; preds = %36
  call void @_ZN5cmsys17RegularExpressionC2EPKc(ptr noundef nonnull align 8 dereferenceable(556) %10, ptr noundef @.str.191)
  br label %40

40:                                               ; preds = %54, %39
  %41 = load ptr, ptr %5, align 8
  %42 = invoke noundef zeroext i1 @_ZN5cmsys17RegularExpression4findERKNSt7__cxx1112basic_stringIcSt11char_traitsIcESaIcEEE(ptr noundef nonnull align 8 dereferenceable(556) %10, ptr noundef nonnull align 8 dereferenceable(32) %41)
          to label %43 unwind label %55

43:                                               ; preds = %40
  br i1 %42, label %44, label %59

44:                                               ; preds = %43
  %45 = load ptr, ptr %5, align 8
  %46 = invoke noundef i64 @_ZNK5cmsys17RegularExpression5startEv(ptr noundef nonnull align 8 dereferenceable(556) %10)
          to label %47 unwind label %55

47:                                               ; preds = %44
  %48 = invoke noundef i64 @_ZNK5cmsys17RegularExpression3endEv(ptr noundef nonnull align 8 dereferenceable(556) %10)
          to label %49 unwind label %55

49:                                               ; preds = %47
  %50 = invoke noundef i64 @_ZNK5cmsys17RegularExpression5startEv(ptr noundef nonnull align 8 dereferenceable(556) %10)
          to label %51 unwind label %55

51:                                               ; preds = %49
  %52 = sub i64 %48, %50
  %53 = invoke noundef nonnull align 8 dereferenceable(32) ptr @_ZNSt7__cxx1112basic_stringIcSt11char_traitsIcESaIcEE5eraseEmm(ptr noundef nonnull align 8 dereferenceable(32) %45, i64 noundef %46, i64 noundef %52)
          to label %54 unwind label %55

54:                                               ; preds = %51
  br label %40, !llvm.loop !23

55:                                               ; preds = %51, %49, %47, %44, %40
  %56 = landingpad { ptr, i32 }
          cleanup
  %57 = extractvalue { ptr, i32 } %56, 0
  store ptr %57, ptr %8, align 8
  %58 = extractvalue { ptr, i32 } %56, 1
  store i32 %58, ptr %9, align 4
  call void @_ZN5cmsys17RegularExpressionD2Ev(ptr noundef nonnull align 8 dereferenceable(556) %10) #3
  br label %81

59:                                               ; preds = %43
  call void @_ZN5cmsys17RegularExpressionD2Ev(ptr noundef nonnull align 8 dereferenceable(556) %10) #3
  br label %60

60:                                               ; preds = %59, %36
  call void @_ZN5cmsys17RegularExpressionC2EPKc(ptr noundef nonnull align 8 dereferenceable(556) %11, ptr noundef @.str.192)
  br label %61

61:                                               ; preds = %75, %60
  %62 = load ptr, ptr %5, align 8
  %63 = invoke noundef zeroext i1 @_ZN5cmsys17RegularExpression4findERKNSt7__cxx1112basic_stringIcSt11char_traitsIcESaIcEEE(ptr noundef nonnull align 8 dereferenceable(556) %11, ptr noundef nonnull align 8 dereferenceable(32) %62)
          to label %64 unwind label %76

64:                                               ; preds = %61
  br i1 %63, label %65, label %80

65:                                               ; preds = %64
  %66 = load ptr, ptr %5, align 8
  %67 = invoke noundef i64 @_ZNK5cmsys17RegularExpression5startEv(ptr noundef nonnull align 8 dereferenceable(556) %11)
          to label %68 unwind label %76

68:                                               ; preds = %65
  %69 = invoke noundef i64 @_ZNK5cmsys17RegularExpression3endEv(ptr noundef nonnull align 8 dereferenceable(556) %11)
          to label %70 unwind label %76

70:                                               ; preds = %68
  %71 = invoke noundef i64 @_ZNK5cmsys17RegularExpression5startEv(ptr noundef nonnull align 8 dereferenceable(556) %11)
          to label %72 unwind label %76

72:                                               ; preds = %70
  %73 = sub i64 %69, %71
  %74 = invoke noundef nonnull align 8 dereferenceable(32) ptr @_ZNSt7__cxx1112basic_stringIcSt11char_traitsIcESaIcEE5eraseEmm(ptr noundef nonnull align 8 dereferenceable(32) %66, i64 noundef %67, i64 noundef %73)
          to label %75 unwind label %76

75:                                               ; preds = %72
  br label %61, !llvm.loop !24

76:                                               ; preds = %72, %70, %68, %65, %61
  %77 = landingpad { ptr, i32 }
          cleanup
  %78 = extractvalue { ptr, i32 } %77, 0
  store ptr %78, ptr %8, align 8
  %79 = extractvalue { ptr, i32 } %77, 1
  store i32 %79, ptr %9, align 4
  call void @_ZN5cmsys17RegularExpressionD2Ev(ptr noundef nonnull align 8 dereferenceable(556) %11) #3
  br label %81

80:                                               ; preds = %64
  call void @_ZN5cmsys17RegularExpressionD2Ev(ptr noundef nonnull align 8 dereferenceable(556) %11) #3
  ret void

81:                                               ; preds = %76, %55, %31
  %82 = load ptr, ptr %8, align 8
  %83 = load i32, ptr %9, align 4
  %84 = insertvalue { ptr, i32 } poison, ptr %82, 0
  %85 = insertvalue { ptr, i32 } %84, i32 %83, 1
  resume { ptr, i32 } %85
}