; Function Attrs: mustprogress uwtable
define dso_local void @_ZNK10cmMakefile23RemoveVariablesInStringERNSt7__cxx1112basic_stringIcSt11char_traitsIcESaIcEEEb(ptr nocapture noundef nonnull readnone align 8 dereferenceable(3520) %0, ptr noundef nonnull align 8 dereferenceable(32) %1, i1 noundef zeroext %2) local_unnamed_addr #4 align 2 personality ptr @__gxx_personality_v0 {
  %4 = alloca %"class.cmsys::RegularExpression", align 8
  %5 = alloca %"class.cmsys::RegularExpression", align 8
  %6 = alloca %"class.cmsys::RegularExpression", align 8
  br i1 %2, label %.critedge, label %7

7:                                                ; preds = %3
  %8 = getelementptr inbounds i8, ptr %4, i64 528
  store ptr null, ptr %8, align 8
  %9 = getelementptr inbounds i8, ptr %4, i64 544
  store ptr null, ptr %9, align 8
  %10 = getelementptr inbounds i8, ptr %4, i64 552
  store i32 0, ptr %10, align 8
  call void @llvm.memset.p0.i64(ptr noundef nonnull align 8 dereferenceable(522) %4, i8 0, i64 522, i1 false)
  %11 = call noundef zeroext i1 @_ZN5cmsys17RegularExpression7compileEPKc(ptr noundef nonnull align 8 dereferenceable(556) %4, ptr noundef nonnull @.str.190)
  %12 = getelementptr inbounds i8, ptr %4, i64 512
  %13 = getelementptr inbounds i8, ptr %4, i64 256
  br label %14

14:                                               ; preds = %17, %7
  %15 = call noundef ptr @_ZNKSt7__cxx1112basic_stringIcSt11char_traitsIcESaIcEE5c_strEv(ptr noundef nonnull align 8 dereferenceable(32) %1) #29
  %16 = invoke noundef zeroext i1 @_ZNK5cmsys17RegularExpression4findEPKcRNS_22RegularExpressionMatchE(ptr noundef nonnull align 8 dereferenceable(556) %4, ptr noundef %15, ptr noundef nonnull align 8 dereferenceable(520) %4)
          to label %_ZN5cmsys17RegularExpression4findERKNSt7__cxx1112basic_stringIcSt11char_traitsIcESaIcEEE.exit unwind label %27

_ZN5cmsys17RegularExpression4findERKNSt7__cxx1112basic_stringIcSt11char_traitsIcESaIcEEE.exit: ; preds = %14
  br i1 %16, label %17, label %31

17:                                               ; preds = %_ZN5cmsys17RegularExpression4findERKNSt7__cxx1112basic_stringIcSt11char_traitsIcESaIcEEE.exit
  %18 = load ptr, ptr %4, align 8
  %19 = load ptr, ptr %12, align 8
  %20 = ptrtoint ptr %18 to i64
  %21 = ptrtoint ptr %19 to i64
  %22 = sub i64 %20, %21
  %23 = load ptr, ptr %13, align 8
  %24 = ptrtoint ptr %23 to i64
  %25 = sub i64 %24, %20
  %26 = invoke noundef nonnull align 8 dereferenceable(32) ptr @_ZNSt7__cxx1112basic_stringIcSt11char_traitsIcESaIcEE5eraseEmm(ptr noundef nonnull align 8 dereferenceable(32) %1, i64 noundef %22, i64 noundef %25)
          to label %14 unwind label %27, !llvm.loop !419

27:                                               ; preds = %14, %17
  %28 = landingpad { ptr, i32 }
          cleanup
  %29 = load ptr, ptr %9, align 8
  %30 = icmp eq ptr %29, null
  br i1 %30, label %_ZN5cmsys17RegularExpressionD2Ev.exit, label %_ZN5cmsys17RegularExpressionD2Ev.exit.sink.split

31:                                               ; preds = %_ZN5cmsys17RegularExpression4findERKNSt7__cxx1112basic_stringIcSt11char_traitsIcESaIcEEE.exit
  %32 = load ptr, ptr %9, align 8
  %33 = icmp eq ptr %32, null
  br i1 %33, label %_ZN5cmsys17RegularExpressionD2Ev.exit11, label %34

34:                                               ; preds = %31
  call void @_ZdaPv(ptr noundef nonnull %32) #30
  br label %_ZN5cmsys17RegularExpressionD2Ev.exit11

_ZN5cmsys17RegularExpressionD2Ev.exit11:          ; preds = %34, %31
  %35 = getelementptr inbounds i8, ptr %5, i64 528
  store ptr null, ptr %35, align 8
  %36 = getelementptr inbounds i8, ptr %5, i64 544
  store ptr null, ptr %36, align 8
  %37 = getelementptr inbounds i8, ptr %5, i64 552
  store i32 0, ptr %37, align 8
  call void @llvm.memset.p0.i64(ptr noundef nonnull align 8 dereferenceable(522) %5, i8 0, i64 522, i1 false)
  %38 = call noundef zeroext i1 @_ZN5cmsys17RegularExpression7compileEPKc(ptr noundef nonnull align 8 dereferenceable(556) %5, ptr noundef nonnull @.str.191)
  %39 = getelementptr inbounds i8, ptr %5, i64 512
  %40 = getelementptr inbounds i8, ptr %5, i64 256
  br label %41

41:                                               ; preds = %44, %_ZN5cmsys17RegularExpressionD2Ev.exit11
  %42 = call noundef ptr @_ZNKSt7__cxx1112basic_stringIcSt11char_traitsIcESaIcEE5c_strEv(ptr noundef nonnull align 8 dereferenceable(32) %1) #29
  %43 = invoke noundef zeroext i1 @_ZNK5cmsys17RegularExpression4findEPKcRNS_22RegularExpressionMatchE(ptr noundef nonnull align 8 dereferenceable(556) %5, ptr noundef %42, ptr noundef nonnull align 8 dereferenceable(520) %5)
          to label %_ZN5cmsys17RegularExpression4findERKNSt7__cxx1112basic_stringIcSt11char_traitsIcESaIcEEE.exit12 unwind label %54

_ZN5cmsys17RegularExpression4findERKNSt7__cxx1112basic_stringIcSt11char_traitsIcESaIcEEE.exit12: ; preds = %41
  br i1 %43, label %44, label %58

44:                                               ; preds = %_ZN5cmsys17RegularExpression4findERKNSt7__cxx1112basic_stringIcSt11char_traitsIcESaIcEEE.exit12
  %45 = load ptr, ptr %5, align 8
  %46 = load ptr, ptr %39, align 8
  %47 = ptrtoint ptr %45 to i64
  %48 = ptrtoint ptr %46 to i64
  %49 = sub i64 %47, %48
  %50 = load ptr, ptr %40, align 8
  %51 = ptrtoint ptr %50 to i64
  %52 = sub i64 %51, %47
  %53 = invoke noundef nonnull align 8 dereferenceable(32) ptr @_ZNSt7__cxx1112basic_stringIcSt11char_traitsIcESaIcEE5eraseEmm(ptr noundef nonnull align 8 dereferenceable(32) %1, i64 noundef %49, i64 noundef %52)
          to label %41 unwind label %54, !llvm.loop !420

54:                                               ; preds = %41, %44
  %55 = landingpad { ptr, i32 }
          cleanup
  %56 = load ptr, ptr %36, align 8
  %57 = icmp eq ptr %56, null
  br i1 %57, label %_ZN5cmsys17RegularExpressionD2Ev.exit, label %_ZN5cmsys17RegularExpressionD2Ev.exit.sink.split

58:                                               ; preds = %_ZN5cmsys17RegularExpression4findERKNSt7__cxx1112basic_stringIcSt11char_traitsIcESaIcEEE.exit12
  %59 = load ptr, ptr %36, align 8
  %60 = icmp eq ptr %59, null
  br i1 %60, label %.critedge, label %61

61:                                               ; preds = %58
  call void @_ZdaPv(ptr noundef nonnull %59) #30
  br label %.critedge

.critedge:                                        ; preds = %61, %58, %3
  %62 = getelementptr inbounds i8, ptr %6, i64 528
  store ptr null, ptr %62, align 8
  %63 = getelementptr inbounds i8, ptr %6, i64 544
  store ptr null, ptr %63, align 8
  %64 = getelementptr inbounds i8, ptr %6, i64 552
  store i32 0, ptr %64, align 8
  call void @llvm.memset.p0.i64(ptr noundef nonnull align 8 dereferenceable(522) %6, i8 0, i64 522, i1 false)
  %65 = call noundef zeroext i1 @_ZN5cmsys17RegularExpression7compileEPKc(ptr noundef nonnull align 8 dereferenceable(556) %6, ptr noundef nonnull @.str.192)
  %66 = getelementptr inbounds i8, ptr %6, i64 512
  %67 = getelementptr inbounds i8, ptr %6, i64 256
  br label %68

68:                                               ; preds = %71, %.critedge
  %69 = call noundef ptr @_ZNKSt7__cxx1112basic_stringIcSt11char_traitsIcESaIcEE5c_strEv(ptr noundef nonnull align 8 dereferenceable(32) %1) #29
  %70 = invoke noundef zeroext i1 @_ZNK5cmsys17RegularExpression4findEPKcRNS_22RegularExpressionMatchE(ptr noundef nonnull align 8 dereferenceable(556) %6, ptr noundef %69, ptr noundef nonnull align 8 dereferenceable(520) %6)
          to label %_ZN5cmsys17RegularExpression4findERKNSt7__cxx1112basic_stringIcSt11char_traitsIcESaIcEEE.exit15 unwind label %81

_ZN5cmsys17RegularExpression4findERKNSt7__cxx1112basic_stringIcSt11char_traitsIcESaIcEEE.exit15: ; preds = %68
  br i1 %70, label %71, label %85

71:                                               ; preds = %_ZN5cmsys17RegularExpression4findERKNSt7__cxx1112basic_stringIcSt11char_traitsIcESaIcEEE.exit15
  %72 = load ptr, ptr %6, align 8
  %73 = load ptr, ptr %66, align 8
  %74 = ptrtoint ptr %72 to i64
  %75 = ptrtoint ptr %73 to i64
  %76 = sub i64 %74, %75
  %77 = load ptr, ptr %67, align 8
  %78 = ptrtoint ptr %77 to i64
  %79 = sub i64 %78, %74
  %80 = invoke noundef nonnull align 8 dereferenceable(32) ptr @_ZNSt7__cxx1112basic_stringIcSt11char_traitsIcESaIcEE5eraseEmm(ptr noundef nonnull align 8 dereferenceable(32) %1, i64 noundef %76, i64 noundef %79)
          to label %68 unwind label %81, !llvm.loop !421

81:                                               ; preds = %68, %71
  %82 = landingpad { ptr, i32 }
          cleanup
  %83 = load ptr, ptr %63, align 8
  %84 = icmp eq ptr %83, null
  br i1 %84, label %_ZN5cmsys17RegularExpressionD2Ev.exit, label %_ZN5cmsys17RegularExpressionD2Ev.exit.sink.split

85:                                               ; preds = %_ZN5cmsys17RegularExpression4findERKNSt7__cxx1112basic_stringIcSt11char_traitsIcESaIcEEE.exit15
  %86 = load ptr, ptr %63, align 8
  %87 = icmp eq ptr %86, null
  br i1 %87, label %_ZN5cmsys17RegularExpressionD2Ev.exit17, label %88

88:                                               ; preds = %85
  call void @_ZdaPv(ptr noundef nonnull %86) #30
  br label %_ZN5cmsys17RegularExpressionD2Ev.exit17

_ZN5cmsys17RegularExpressionD2Ev.exit17:          ; preds = %85, %88
  ret void

_ZN5cmsys17RegularExpressionD2Ev.exit.sink.split: ; preds = %81, %54, %27
  %.sink = phi ptr [ %29, %27 ], [ %56, %54 ], [ %83, %81 ]
  %.pn.ph = phi { ptr, i32 } [ %28, %27 ], [ %55, %54 ], [ %82, %81 ]
  call void @_ZdaPv(ptr noundef nonnull %.sink) #30
  br label %_ZN5cmsys17RegularExpressionD2Ev.exit

_ZN5cmsys17RegularExpressionD2Ev.exit:            ; preds = %_ZN5cmsys17RegularExpressionD2Ev.exit.sink.split, %81, %54, %27
  %.pn = phi { ptr, i32 } [ %28, %27 ], [ %55, %54 ], [ %82, %81 ], [ %.pn.ph, %_ZN5cmsys17RegularExpressionD2Ev.exit.sink.split ]
  resume { ptr, i32 } %.pn
}